; Function Attrs: nounwind uwtable
define ptr @l_Array_mapFinIdxM_map___at_Lean_Meta_IndPredBelow_proveBrecOn_induction___spec__1___lambda__1(ptr noundef readonly captures(none) %0, ptr noundef %1, ptr noundef %2, ptr noundef %3, ptr noundef %4, ptr noundef %5, ptr readnone captures(none) %6, ptr noundef %7, ptr noundef %8, ptr noundef %9, ptr noundef %10, ptr noundef %11) local_unnamed_addr #0 {
  %13 = getelementptr inbounds nuw i8, ptr %0, i64 24
  %14 = load ptr, ptr %13, align 8, !tbaa !4
  %15 = load ptr, ptr @l_Lean_instInhabitedName, align 8, !tbaa !4
  %16 = ptrtoint ptr %1 to i64
  %17 = and i64 %16, 1
  %.not.i24 = icmp eq i64 %17, 0
  br i1 %.not.i24, label %lean_array_uget.exit.i, label %18

18:                                               ; preds = %12
  %19 = lshr i64 %16, 1
  %20 = getelementptr i8, ptr %14, i64 8
  %.val.i = load i64, ptr %20, align 8, !tbaa !8
  %21 = icmp ult i64 %19, %.val.i
  br i1 %21, label %22, label %lean_array_uget.exit.i

22:                                               ; preds = %18
  %23 = ptrtoint ptr %15 to i64
  %24 = and i64 %23, 1
  %.not14.i = icmp eq i64 %24, 0
  br i1 %.not14.i, label %25, label %lean_dec.exit.i

25:                                               ; preds = %22
  %26 = load i32, ptr %15, align 4, !tbaa !12
  %27 = icmp sgt i32 %26, 1
  br i1 %27, label %28, label %30, !prof !11

28:                                               ; preds = %25
  %29 = add nsw i32 %26, -1
  store i32 %29, ptr %15, align 4, !tbaa !12
  br label %lean_dec.exit.i

30:                                               ; preds = %25
  %.not.i.i = icmp eq i32 %26, 0
  br i1 %.not.i.i, label %lean_dec.exit.i, label %31

31:                                               ; preds = %30
  tail call void @lean_dec_ref_cold(ptr noundef nonnull %15) #6
  br label %lean_dec.exit.i

lean_dec.exit.i:                                  ; preds = %31, %30, %28, %22
  %32 = getelementptr inbounds nuw i8, ptr %14, i64 24
  %33 = getelementptr inbounds nuw [0 x ptr], ptr %32, i64 0, i64 %19
  %34 = load ptr, ptr %33, align 8, !tbaa !4
  %35 = ptrtoint ptr %34 to i64
  %36 = and i64 %35, 1
  %.not.i11.i = icmp eq i64 %36, 0
  br i1 %.not.i11.i, label %37, label %lean_array_get.exit

37:                                               ; preds = %lean_dec.exit.i
  %.val.i.i.i = load i32, ptr %34, align 4, !tbaa !12
  %38 = icmp sgt i32 %.val.i.i.i, 0
  br i1 %38, label %39, label %41, !prof !11

39:                                               ; preds = %37
  %40 = add nuw i32 %.val.i.i.i, 1
  store i32 %40, ptr %34, align 4, !tbaa !12
  br label %lean_array_get.exit

41:                                               ; preds = %37
  %.not.i.i.i = icmp eq i32 %.val.i.i.i, 0
  br i1 %.not.i.i.i, label %lean_array_get.exit, label %42

42:                                               ; preds = %41
  tail call void @lean_inc_ref_cold(ptr noundef nonnull %34) #6
  br label %lean_array_get.exit

lean_array_uget.exit.i:                           ; preds = %18, %12
  %43 = tail call ptr @lean_array_get_panic(ptr noundef %15) #6
  br label %lean_array_get.exit

lean_array_get.exit:                              ; preds = %lean_dec.exit.i, %39, %41, %42, %lean_array_uget.exit.i
  %.1.i = phi ptr [ %43, %lean_array_uget.exit.i ], [ %34, %42 ], [ %34, %41 ], [ %34, %39 ], [ %34, %lean_dec.exit.i ]
  %44 = tail call ptr @l_Lean_Expr_const___override(ptr noundef %.1.i, ptr noundef %2) #6
  %45 = tail call ptr @l_Array_append___rarg(ptr noundef %3, ptr noundef %4) #6
  %46 = tail call ptr @l_Array_append___rarg(ptr noundef %45, ptr noundef %5) #6
  %47 = tail call ptr @l_Lean_mkAppN(ptr noundef %44, ptr noundef %46) #6
  %48 = ptrtoint ptr %46 to i64
  %49 = and i64 %48, 1
  %.not = icmp eq i64 %49, 0
  br i1 %.not, label %50, label %lean_dec.exit

50:                                               ; preds = %lean_array_get.exit
  %51 = load i32, ptr %46, align 4, !tbaa !12
  %52 = icmp sgt i32 %51, 1
  br i1 %52, label %53, label %55, !prof !11

53:                                               ; preds = %50
  %54 = add nsw i32 %51, -1
  store i32 %54, ptr %46, align 4, !tbaa !12
  br label %lean_dec.exit

55:                                               ; preds = %50
  %.not.i = icmp eq i32 %51, 0
  br i1 %.not.i, label %lean_dec.exit, label %56

56:                                               ; preds = %55
  tail call void @lean_dec_ref_cold(ptr noundef nonnull %46) #6
  br label %lean_dec.exit

lean_dec.exit:                                    ; preds = %56, %55, %53, %lean_array_get.exit
  %57 = tail call ptr @l_Lean_Meta_mkLambdaFVars(ptr noundef %5, ptr noundef %47, i8 noundef zeroext 0, i8 noundef zeroext 1, i8 noundef zeroext 0, i8 noundef zeroext 1, ptr noundef %7, ptr noundef %8, ptr noundef %9, ptr noundef %10, ptr noundef %11) #6
  ret ptr %57
}